target datalayout = "e-m:e-p270:32:32-p271:32:32-p272:64:64-i64:64-i128:128-f80:128-n8:16:32:64-S128"
target triple = "x86_64-pc-linux-gnu"

%struct._zval_struct = type { %union._zend_value, %union.anon.3, %union.anon.6 }
%union._zend_value = type { i64 }
%union.anon.3 = type { i32 }
%union.anon.6 = type { i32 }
%struct._php_stream = type { ptr, ptr, %struct._php_stream_filter_chain, %struct._php_stream_filter_chain, ptr, ptr, %struct._zval_struct, i16, [16 x i8], i32, ptr, ptr, ptr, ptr, i64, ptr, i64, i64, i64, i64, ptr }
%struct._php_stream_filter_chain = type { ptr, ptr, ptr }

; Function Attrs: nounwind uwtable
define internal ptr @_php_stream_search_delim(ptr noundef %0, i64 noundef %1, i64 noundef %2, ptr noundef %3, i64 noundef %4) #0 {
  %6 = alloca ptr, align 8
  %7 = alloca ptr, align 8
  %8 = alloca ptr, align 8
  %9 = alloca i64, align 8
  %10 = alloca ptr, align 8
  %11 = alloca ptr, align 8
  %12 = alloca i64, align 8
  %13 = alloca i8, align 1
  %14 = alloca ptr, align 8
  %15 = alloca ptr, align 8
  %16 = alloca i64, align 8
  %17 = alloca i64, align 8
  %18 = alloca ptr, align 8
  %19 = alloca i64, align 8
  %20 = alloca i64, align 8
  store ptr %0, ptr %15, align 8
  store i64 %1, ptr %16, align 8
  store i64 %2, ptr %17, align 8
  store ptr %3, ptr %18, align 8
  store i64 %4, ptr %19, align 8
  %21 = load ptr, ptr %15, align 8
  %22 = getelementptr inbounds %struct._php_stream, ptr %21, i32 0, i32 18
  %23 = load i64, ptr %22, align 8
  %24 = load ptr, ptr %15, align 8
  %25 = getelementptr inbounds %struct._php_stream, ptr %24, i32 0, i32 17
  %26 = load i64, ptr %25, align 8
  %27 = sub nsw i64 %23, %26
  %28 = load i64, ptr %16, align 8
  %29 = icmp ult i64 %27, %28
  br i1 %29, label %30, label %38

30:                                               ; preds = %5
  %31 = load ptr, ptr %15, align 8
  %32 = getelementptr inbounds %struct._php_stream, ptr %31, i32 0, i32 18
  %33 = load i64, ptr %32, align 8
  %34 = load ptr, ptr %15, align 8
  %35 = getelementptr inbounds %struct._php_stream, ptr %34, i32 0, i32 17
  %36 = load i64, ptr %35, align 8
  %37 = sub nsw i64 %33, %36
  br label %40

38:                                               ; preds = %5
  %39 = load i64, ptr %16, align 8
  br label %40

40:                                               ; preds = %38, %30
  %41 = phi i64 [ %37, %30 ], [ %39, %38 ]
  store i64 %41, ptr %20, align 8
  %42 = load i64, ptr %20, align 8
  %43 = load i64, ptr %17, align 8
  %44 = icmp ule i64 %42, %43
  br i1 %44, label %45, label %46

45:                                               ; preds = %40
  store ptr null, ptr %14, align 8
  br label %189

46:                                               ; preds = %40
  %47 = load i64, ptr %19, align 8
  %48 = icmp eq i64 %47, 1
  br i1 %48, label %49, label %67

49:                                               ; preds = %46
  %50 = load ptr, ptr %15, align 8
  %51 = getelementptr inbounds %struct._php_stream, ptr %50, i32 0, i32 15
  %52 = load ptr, ptr %51, align 8
  %53 = load ptr, ptr %15, align 8
  %54 = getelementptr inbounds %struct._php_stream, ptr %53, i32 0, i32 17
  %55 = load i64, ptr %54, align 8
  %56 = load i64, ptr %17, align 8
  %57 = add i64 %55, %56
  %58 = getelementptr inbounds i8, ptr %52, i64 %57
  %59 = load ptr, ptr %18, align 8
  %60 = getelementptr inbounds i8, ptr %59, i64 0
  %61 = load i8, ptr %60, align 1
  %62 = sext i8 %61 to i32
  %63 = load i64, ptr %20, align 8
  %64 = load i64, ptr %17, align 8
  %65 = sub i64 %63, %64
  %66 = call ptr @memchr(ptr noundef %58, i32 noundef %62, i64 noundef %65) #13
  store ptr %66, ptr %14, align 8
  br label %189

67:                                               ; preds = %46
  %68 = load ptr, ptr %15, align 8
  %69 = getelementptr inbounds %struct._php_stream, ptr %68, i32 0, i32 15
  %70 = load ptr, ptr %69, align 8
  %71 = load ptr, ptr %15, align 8
  %72 = getelementptr inbounds %struct._php_stream, ptr %71, i32 0, i32 17
  %73 = load i64, ptr %72, align 8
  %74 = load i64, ptr %17, align 8
  %75 = add i64 %73, %74
  %76 = getelementptr inbounds i8, ptr %70, i64 %75
  %77 = load ptr, ptr %18, align 8
  %78 = load i64, ptr %19, align 8
  %79 = load ptr, ptr %15, align 8
  %80 = getelementptr inbounds %struct._php_stream, ptr %79, i32 0, i32 15
  %81 = load ptr, ptr %80, align 8
  %82 = load ptr, ptr %15, align 8
  %83 = getelementptr inbounds %struct._php_stream, ptr %82, i32 0, i32 17
  %84 = load i64, ptr %83, align 8
  %85 = load i64, ptr %20, align 8
  %86 = add i64 %84, %85
  %87 = getelementptr inbounds i8, ptr %81, i64 %86
  store ptr %76, ptr %7, align 8
  store ptr %77, ptr %8, align 8
  store i64 %78, ptr %9, align 8
  store ptr %87, ptr %10, align 8
  %88 = load ptr, ptr %7, align 8
  store ptr %88, ptr %11, align 8
  %89 = load ptr, ptr %10, align 8
  %90 = load ptr, ptr %11, align 8
  %91 = icmp uge ptr %89, %90
  call void @llvm.assume(i1 %91)
  %92 = load i64, ptr %9, align 8
  %93 = icmp eq i64 %92, 1
  br i1 %93, label %94, label %105

94:                                               ; preds = %67
  %95 = load ptr, ptr %11, align 8
  %96 = load ptr, ptr %8, align 8
  %97 = load i8, ptr %96, align 1
  %98 = sext i8 %97 to i32
  %99 = load ptr, ptr %10, align 8
  %100 = load ptr, ptr %11, align 8
  %101 = ptrtoint ptr %99 to i64
  %102 = ptrtoint ptr %100 to i64
  %103 = sub i64 %101, %102
  %104 = call ptr @memchr(ptr noundef %95, i32 noundef %98, i64 noundef %103) #13
  store ptr %104, ptr %6, align 8
  br label %187

105:                                              ; preds = %67
  %106 = load i64, ptr %9, align 8
  %107 = icmp eq i64 %106, 0
  br i1 %107, label %108, label %110

108:                                              ; preds = %105
  %109 = load ptr, ptr %11, align 8
  store ptr %109, ptr %6, align 8
  br label %187

110:                                              ; preds = %105
  %111 = load ptr, ptr %10, align 8
  %112 = load ptr, ptr %11, align 8
  %113 = ptrtoint ptr %111 to i64
  %114 = ptrtoint ptr %112 to i64
  %115 = sub i64 %113, %114
  store i64 %115, ptr %12, align 8
  %116 = load i64, ptr %9, align 8
  %117 = load i64, ptr %12, align 8
  %118 = icmp ugt i64 %116, %117
  br i1 %118, label %119, label %120

119:                                              ; preds = %110
  store ptr null, ptr %6, align 8
  br label %187

120:                                              ; preds = %110
  %121 = load i64, ptr %12, align 8
  %122 = icmp ult i64 %121, 1024
  br i1 %122, label %126, label %123

123:                                              ; preds = %120
  %124 = load i64, ptr %9, align 8
  %125 = icmp ult i64 %124, 9
  br label %126

126:                                              ; preds = %123, %120
  %127 = phi i1 [ true, %120 ], [ %125, %123 ]
  br i1 %127, label %128, label %181

128:                                              ; preds = %126
  %129 = load ptr, ptr %8, align 8
  %130 = load i64, ptr %9, align 8
  %131 = sub i64 %130, 1
  %132 = getelementptr inbounds i8, ptr %129, i64 %131
  %133 = load i8, ptr %132, align 1
  store i8 %133, ptr %13, align 1
  %134 = load i64, ptr %9, align 8
  %135 = load ptr, ptr %10, align 8
  %136 = sub i64 0, %134
  %137 = getelementptr inbounds i8, ptr %135, i64 %136
  store ptr %137, ptr %10, align 8
  br label %138

138:                                              ; preds = %176, %128
  %139 = load ptr, ptr %11, align 8
  %140 = load ptr, ptr %10, align 8
  %141 = icmp ule ptr %139, %140
  br i1 %141, label %142, label %180

142:                                              ; preds = %138
  %143 = load ptr, ptr %11, align 8
  %144 = load ptr, ptr %8, align 8
  %145 = load i8, ptr %144, align 1
  %146 = sext i8 %145 to i32
  %147 = load ptr, ptr %10, align 8
  %148 = load ptr, ptr %11, align 8
  %149 = ptrtoint ptr %147 to i64
  %150 = ptrtoint ptr %148 to i64
  %151 = sub i64 %149, %150
  %152 = add nsw i64 %151, 1
  %153 = call ptr @memchr(ptr noundef %143, i32 noundef %146, i64 noundef %152) #13
  store ptr %153, ptr %11, align 8
  %154 = icmp ne ptr %153, null
  br i1 %154, label %155, label %179

155:                                              ; preds = %142
  %156 = load i8, ptr %13, align 1
  %157 = sext i8 %156 to i32
  %158 = load ptr, ptr %11, align 8
  %159 = load i64, ptr %9, align 8
  %160 = sub i64 %159, 1
  %161 = getelementptr inbounds i8, ptr %158, i64 %160
  %162 = load i8, ptr %161, align 1
  %163 = sext i8 %162 to i32
  %164 = icmp eq i32 %157, %163
  br i1 %164, label %165, label %176

165:                                              ; preds = %155
  %166 = load ptr, ptr %8, align 8
  %167 = getelementptr inbounds i8, ptr %166, i64 1
  %168 = load ptr, ptr %11, align 8
  %169 = getelementptr inbounds i8, ptr %168, i64 1
  %170 = load i64, ptr %9, align 8
  %171 = sub i64 %170, 2
  %172 = call i32 @memcmp(ptr noundef %167, ptr noundef %169, i64 noundef %171) #13
  %173 = icmp ne i32 %172, 0
  br i1 %173, label %176, label %174

174:                                              ; preds = %165
  %175 = load ptr, ptr %11, align 8
  store ptr %175, ptr %6, align 8
  br label %187

176:                                              ; preds = %165, %155
  %177 = load ptr, ptr %11, align 8
  %178 = getelementptr inbounds i8, ptr %177, i32 1
  store ptr %178, ptr %11, align 8
  br label %138

179:                                              ; preds = %142
  store ptr null, ptr %6, align 8
  br label %187

180:                                              ; preds = %138
  store ptr null, ptr %6, align 8
  br label %187

181:                                              ; preds = %126
  %182 = load ptr, ptr %7, align 8
  %183 = load ptr, ptr %8, align 8
  %184 = load i64, ptr %9, align 8
  %185 = load ptr, ptr %10, align 8
  %186 = call ptr @zend_memnstr_ex(ptr noundef %182, ptr noundef %183, i64 noundef %184, ptr noundef %185) #14
  store ptr %186, ptr %6, align 8
  br label %187

187:                                              ; preds = %181, %180, %179, %174, %119, %108, %94
  %188 = load ptr, ptr %6, align 8
  store ptr %188, ptr %14, align 8
  br label %189

189:                                              ; preds = %187, %49, %45
  %190 = load ptr, ptr %14, align 8
  ret ptr %190
}