; Function Attrs: nounwind uwtable
define internal fastcc ptr @_php_stream_search_delim(ptr nocapture noundef readonly %0, i64 noundef %1, i64 noundef %2, ptr noundef %3, i64 noundef %4) unnamed_addr #2 {
  %6 = getelementptr inbounds i8, ptr %0, i64 184
  %7 = load i64, ptr %6, align 8
  %8 = getelementptr inbounds i8, ptr %0, i64 176
  %9 = load i64, ptr %8, align 8
  %10 = sub nsw i64 %7, %9
  %. = tail call i64 @llvm.umin.i64(i64 %10, i64 %1)
  %.not = icmp ugt i64 %., %2
  br i1 %.not, label %11, label %.loopexit

11:                                               ; preds = %5
  %12 = icmp eq i64 %4, 1
  %13 = getelementptr inbounds i8, ptr %0, i64 160
  %14 = load ptr, ptr %13, align 8
  %15 = getelementptr i8, ptr %14, i64 %9
  %16 = getelementptr i8, ptr %15, i64 %2
  br i1 %12, label %17, label %22

17:                                               ; preds = %11
  %18 = load i8, ptr %3, align 1
  %19 = sext i8 %18 to i32
  %20 = sub i64 %., %2
  %21 = tail call ptr @memchr(ptr noundef %16, i32 noundef %19, i64 noundef %20) #28
  br label %.loopexit

22:                                               ; preds = %11
  %23 = getelementptr i8, ptr %15, i64 %.
  %24 = icmp uge ptr %23, %16
  tail call void @llvm.assume(i1 %24)
  %25 = ptrtoint ptr %23 to i64
  %26 = ptrtoint ptr %16 to i64
  %27 = sub i64 %25, %26
  %28 = icmp ult i64 %27, %4
  br i1 %28, label %.loopexit, label %29

29:                                               ; preds = %22
  %30 = icmp ult i64 %27, 1024
  %31 = icmp ult i64 %4, 9
  %32 = or i1 %31, %30
  br i1 %32, label %33, label %57

33:                                               ; preds = %29
  %34 = add i64 %4, -1
  %35 = getelementptr inbounds i8, ptr %3, i64 %34
  %36 = load i8, ptr %35, align 1
  %37 = sub i64 0, %4
  %38 = getelementptr inbounds i8, ptr %23, i64 %37
  %39 = getelementptr inbounds i8, ptr %3, i64 1
  %.not7275 = icmp ugt ptr %16, %38
  br i1 %.not7275, label %.loopexit, label %.lr.ph

.lr.ph:                                           ; preds = %33
  %40 = load i8, ptr %3, align 1
  %41 = sext i8 %40 to i32
  %42 = ptrtoint ptr %38 to i64
  %43 = add i64 %42, 1
  %44 = add i64 %4, -2
  br label %45

45:                                               ; preds = %.lr.ph, %55
  %.06276 = phi ptr [ %16, %.lr.ph ], [ %56, %55 ]
  %46 = ptrtoint ptr %.06276 to i64
  %47 = sub i64 %43, %46
  %48 = tail call ptr @memchr(ptr noundef %.06276, i32 noundef %41, i64 noundef %47) #28
  %.not73 = icmp eq ptr %48, null
  br i1 %.not73, label %.loopexit, label %49

49:                                               ; preds = %45
  %50 = getelementptr inbounds i8, ptr %48, i64 %34
  %51 = load i8, ptr %50, align 1
  %52 = icmp eq i8 %36, %51
  br i1 %52, label %53, label %55

53:                                               ; preds = %49
  %54 = getelementptr inbounds i8, ptr %48, i64 1
  %bcmp = tail call i32 @bcmp(ptr nonnull %39, ptr nonnull %54, i64 %44)
  %.not74 = icmp eq i32 %bcmp, 0
  br i1 %.not74, label %.loopexit, label %55

55:                                               ; preds = %53, %49
  %56 = getelementptr inbounds i8, ptr %48, i64 1
  %.not72 = icmp ugt ptr %56, %38
  br i1 %.not72, label %.loopexit, label %45

57:                                               ; preds = %29
  %58 = tail call ptr @zend_memnstr_ex(ptr noundef %16, ptr noundef %3, i64 noundef %4, ptr noundef %23) #27
  br label %.loopexit

.loopexit:                                        ; preds = %55, %45, %53, %33, %57, %22, %5, %17
  %.063 = phi ptr [ %21, %17 ], [ null, %5 ], [ %58, %57 ], [ null, %22 ], [ null, %33 ], [ null, %55 ], [ null, %45 ], [ %48, %53 ]
  ret ptr %.063
}